target datalayout = "e-m:e-p270:32:32-p271:32:32-p272:64:64-i64:64-i128:128-f80:128-n8:16:32:64-S128"
target triple = "x86_64-pc-linux-gnu"

%"class.arrow_vendored::double_conversion::Bignum" = type { i16, i16, [128 x i32] }

; Function Attrs: mustprogress nounwind uwtable
define noundef nonnull align 4 dereferenceable(4) ptr @_ZNK14arrow_vendored17double_conversion6Bignum8RawBigitEi(ptr noundef nonnull align 4 dereferenceable(516) %0, i32 noundef %1) #0 align 2 {
  %3 = alloca ptr, align 8
  %4 = alloca i32, align 4
  store ptr %0, ptr %3, align 8, !tbaa !3
  store i32 %1, ptr %4, align 4, !tbaa !8
  %5 = load ptr, ptr %3, align 8
  %6 = getelementptr inbounds nuw %"class.arrow_vendored::double_conversion::Bignum", ptr %5, i32 0, i32 2
  %7 = load i32, ptr %4, align 4, !tbaa !8
  %8 = sext i32 %7 to i64
  %9 = getelementptr inbounds [128 x i32], ptr %6, i64 0, i64 %8
  ret ptr %9
}

; Function Attrs: mustprogress uwtable
define noundef i32 @_ZNK14arrow_vendored17double_conversion6Bignum11BigitOrZeroEi(ptr noundef nonnull align 4 dereferenceable(516) %0, i32 noundef %1) #1 align 2 {
  %3 = alloca i32, align 4
  %4 = alloca ptr, align 8
  %5 = alloca i32, align 4
  store ptr %0, ptr %4, align 8, !tbaa !3
  store i32 %1, ptr %5, align 4, !tbaa !8
  %6 = load ptr, ptr %4, align 8
  %7 = load i32, ptr %5, align 4, !tbaa !8
  %8 = call noundef i32 @_ZNK14arrow_vendored17double_conversion6Bignum11BigitLengthEv(ptr noundef nonnull align 4 dereferenceable(516) %6)
  %9 = icmp sge i32 %7, %8
  br i1 %9, label %10, label %11

10:                                               ; preds = %2
  store i32 0, ptr %3, align 4
  br label %26

11:                                               ; preds = %2
  %12 = load i32, ptr %5, align 4, !tbaa !8
  %13 = getelementptr inbounds nuw %"class.arrow_vendored::double_conversion::Bignum", ptr %6, i32 0, i32 1
  %14 = load i16, ptr %13, align 2, !tbaa !14
  %15 = sext i16 %14 to i32
  %16 = icmp slt i32 %12, %15
  br i1 %16, label %17, label %18

17:                                               ; preds = %11
  store i32 0, ptr %3, align 4
  br label %26

18:                                               ; preds = %11
  %19 = load i32, ptr %5, align 4, !tbaa !8
  %20 = getelementptr inbounds nuw %"class.arrow_vendored::double_conversion::Bignum", ptr %6, i32 0, i32 1
  %21 = load i16, ptr %20, align 2, !tbaa !14
  %22 = sext i16 %21 to i32
  %23 = sub nsw i32 %19, %22
  %24 = call noundef nonnull align 4 dereferenceable(4) ptr @_ZNK14arrow_vendored17double_conversion6Bignum8RawBigitEi(ptr noundef nonnull align 4 dereferenceable(516) %6, i32 noundef %23)
  %25 = load i32, ptr %24, align 4, !tbaa !8
  store i32 %25, ptr %3, align 4
  br label %26

26:                                               ; preds = %18, %17, %10
  %27 = load i32, ptr %3, align 4
  ret i32 %27
}

; Function Attrs: inlinehint mustprogress nounwind uwtable
define linkonce_odr noundef nonnull align 2 dereferenceable(2) ptr @_ZSt3minIsERKT_S2_S2_(ptr noundef nonnull align 2 dereferenceable(2) %0, ptr noundef nonnull align 2 dereferenceable(2) %1) #4 comdat {
  %3 = alloca ptr, align 8
  %4 = alloca ptr, align 8
  %5 = alloca ptr, align 8
  store ptr %0, ptr %4, align 8, !tbaa !75
  store ptr %1, ptr %5, align 8, !tbaa !75
  %6 = load ptr, ptr %5, align 8, !tbaa !75
  %7 = load i16, ptr %6, align 2, !tbaa !10
  %8 = sext i16 %7 to i32
  %9 = load ptr, ptr %4, align 8, !tbaa !75
  %10 = load i16, ptr %9, align 2, !tbaa !10
  %11 = sext i16 %10 to i32
  %12 = icmp slt i32 %8, %11
  br i1 %12, label %13, label %15

13:                                               ; preds = %2
  %14 = load ptr, ptr %5, align 8, !tbaa !75
  store ptr %14, ptr %3, align 8
  br label %17

15:                                               ; preds = %2
  %16 = load ptr, ptr %4, align 8, !tbaa !75
  store ptr %16, ptr %3, align 8
  br label %17

17:                                               ; preds = %15, %13
  %18 = load ptr, ptr %3, align 8
  ret ptr %18
}

; Function Attrs: mustprogress nounwind uwtable
define linkonce_odr noundef i32 @_ZNK14arrow_vendored17double_conversion6Bignum11BigitLengthEv(ptr noundef nonnull align 4 dereferenceable(516) %0) #0 comdat align 2 {
  %2 = alloca ptr, align 8
  store ptr %0, ptr %2, align 8, !tbaa !3
  %3 = load ptr, ptr %2, align 8
  %4 = getelementptr inbounds nuw %"class.arrow_vendored::double_conversion::Bignum", ptr %3, i32 0, i32 0
  %5 = load i16, ptr %4, align 4, !tbaa !12
  %6 = sext i16 %5 to i32
  %7 = getelementptr inbounds nuw %"class.arrow_vendored::double_conversion::Bignum", ptr %3, i32 0, i32 1
  %8 = load i16, ptr %7, align 2, !tbaa !14
  %9 = sext i16 %8 to i32
  %10 = add nsw i32 %6, %9
  ret i32 %10
}

; Function Attrs: mustprogress uwtable
define noundef i32 @_ZN14arrow_vendored17double_conversion6Bignum7CompareERKS1_S3_(ptr noundef nonnull align 4 dereferenceable(516) %0, ptr noundef nonnull align 4 dereferenceable(516) %1) #1 align 2 {
  %3 = alloca i32, align 4
  %4 = alloca ptr, align 8
  %5 = alloca ptr, align 8
  %6 = alloca i32, align 4
  %7 = alloca i32, align 4
  %8 = alloca i32, align 4
  %9 = alloca i32, align 4
  %10 = alloca i32, align 4
  %11 = alloca i32, align 4
  store ptr %0, ptr %4, align 8, !tbaa !3
  store ptr %1, ptr %5, align 8, !tbaa !3
  call void @llvm.lifetime.start.p0(i64 4, ptr %6) #6
  %12 = load ptr, ptr %4, align 8, !tbaa !3
  %13 = call noundef i32 @_ZNK14arrow_vendored17double_conversion6Bignum11BigitLengthEv(ptr noundef nonnull align 4 dereferenceable(516) %12)
  store i32 %13, ptr %6, align 4, !tbaa !8
  call void @llvm.lifetime.start.p0(i64 4, ptr %7) #6
  %14 = load ptr, ptr %5, align 8, !tbaa !3
  %15 = call noundef i32 @_ZNK14arrow_vendored17double_conversion6Bignum11BigitLengthEv(ptr noundef nonnull align 4 dereferenceable(516) %14)
  store i32 %15, ptr %7, align 4, !tbaa !8
  %16 = load i32, ptr %6, align 4, !tbaa !8
  %17 = load i32, ptr %7, align 4, !tbaa !8
  %18 = icmp slt i32 %16, %17
  br i1 %18, label %19, label %20

19:                                               ; preds = %2
  store i32 -1, ptr %3, align 4
  store i32 1, ptr %8, align 4
  br label %65

20:                                               ; preds = %2
  %21 = load i32, ptr %6, align 4, !tbaa !8
  %22 = load i32, ptr %7, align 4, !tbaa !8
  %23 = icmp sgt i32 %21, %22
  br i1 %23, label %24, label %25

24:                                               ; preds = %20
  store i32 1, ptr %3, align 4
  store i32 1, ptr %8, align 4
  br label %65

25:                                               ; preds = %20
  call void @llvm.lifetime.start.p0(i64 4, ptr %9) #6
  %26 = load i32, ptr %6, align 4, !tbaa !8
  %27 = sub nsw i32 %26, 1
  store i32 %27, ptr %9, align 4, !tbaa !8
  br label %28

28:                                               ; preds = %59, %25
  %29 = load i32, ptr %9, align 4, !tbaa !8
  %30 = load ptr, ptr %4, align 8, !tbaa !3
  %31 = getelementptr inbounds nuw %"class.arrow_vendored::double_conversion::Bignum", ptr %30, i32 0, i32 1
  %32 = load ptr, ptr %5, align 8, !tbaa !3
  %33 = getelementptr inbounds nuw %"class.arrow_vendored::double_conversion::Bignum", ptr %32, i32 0, i32 1
  %34 = call noundef nonnull align 2 dereferenceable(2) ptr @_ZSt3minIsERKT_S2_S2_(ptr noundef nonnull align 2 dereferenceable(2) %31, ptr noundef nonnull align 2 dereferenceable(2) %33)
  %35 = load i16, ptr %34, align 2, !tbaa !10
  %36 = sext i16 %35 to i32
  %37 = icmp sge i32 %29, %36
  br i1 %37, label %39, label %38

38:                                               ; preds = %28
  store i32 2, ptr %8, align 4
  br label %62

39:                                               ; preds = %28
  call void @llvm.lifetime.start.p0(i64 4, ptr %10) #6
  %40 = load ptr, ptr %4, align 8, !tbaa !3
  %41 = load i32, ptr %9, align 4, !tbaa !8
  %42 = call noundef i32 @_ZNK14arrow_vendored17double_conversion6Bignum11BigitOrZeroEi(ptr noundef nonnull align 4 dereferenceable(516) %40, i32 noundef %41)
  store i32 %42, ptr %10, align 4, !tbaa !8
  call void @llvm.lifetime.start.p0(i64 4, ptr %11) #6
  %43 = load ptr, ptr %5, align 8, !tbaa !3
  %44 = load i32, ptr %9, align 4, !tbaa !8
  %45 = call noundef i32 @_ZNK14arrow_vendored17double_conversion6Bignum11BigitOrZeroEi(ptr noundef nonnull align 4 dereferenceable(516) %43, i32 noundef %44)
  store i32 %45, ptr %11, align 4, !tbaa !8
  %46 = load i32, ptr %10, align 4, !tbaa !8
  %47 = load i32, ptr %11, align 4, !tbaa !8
  %48 = icmp ult i32 %46, %47
  br i1 %48, label %49, label %50

49:                                               ; preds = %39
  store i32 -1, ptr %3, align 4
  store i32 1, ptr %8, align 4
  br label %56

50:                                               ; preds = %39
  %51 = load i32, ptr %10, align 4, !tbaa !8
  %52 = load i32, ptr %11, align 4, !tbaa !8
  %53 = icmp ugt i32 %51, %52
  br i1 %53, label %54, label %55

54:                                               ; preds = %50
  store i32 1, ptr %3, align 4
  store i32 1, ptr %8, align 4
  br label %56

55:                                               ; preds = %50
  store i32 0, ptr %8, align 4
  br label %56

56:                                               ; preds = %55, %54, %49
  call void @llvm.lifetime.end.p0(i64 4, ptr %11) #6
  call void @llvm.lifetime.end.p0(i64 4, ptr %10) #6
  %57 = load i32, ptr %8, align 4
  switch i32 %57, label %62 [
    i32 0, label %58
  ]

58:                                               ; preds = %56
  br label %59

59:                                               ; preds = %58
  %60 = load i32, ptr %9, align 4, !tbaa !8
  %61 = add nsw i32 %60, -1
  store i32 %61, ptr %9, align 4, !tbaa !8
  br label %28, !llvm.loop !74

62:                                               ; preds = %56, %38
  call void @llvm.lifetime.end.p0(i64 4, ptr %9) #6
  %63 = load i32, ptr %8, align 4
  switch i32 %63, label %65 [
    i32 2, label %64
  ]

64:                                               ; preds = %62
  store i32 0, ptr %3, align 4
  store i32 1, ptr %8, align 4
  br label %65

65:                                               ; preds = %64, %62, %24, %19
  call void @llvm.lifetime.end.p0(i64 4, ptr %7) #6
  call void @llvm.lifetime.end.p0(i64 4, ptr %6) #6
  %66 = load i32, ptr %3, align 4
  ret i32 %66
}